target datalayout = "e-m:e-p270:32:32-p271:32:32-p272:64:64-i64:64-i128:128-f80:128-n8:16:32:64-S128"
target triple = "x86_64-pc-linux-gnu"

%struct.gmx_parallel_3dfft = type { ptr, ptr }
%struct.fft5d_plan_t = type { ptr, ptr, ptr, ptr, [3 x ptr], ptr, [2 x ptr], [3 x i32], [3 x i32], [3 x i32], [3 x i32], [3 x i32], [3 x i32], [3 x i32], [3 x i32], [3 x ptr], [3 x ptr], [3 x ptr], [3 x ptr], [3 x i32], [3 x i32], [2 x i32], i32, i32, i32, i32, [2 x i32], i32, i32 }

; Function Attrs: mustprogress nounwind uwtable
define internal void @_ZL16reorder_ivec_yzxPi(ptr noundef %0) #4 {
  %2 = alloca ptr, align 8
  %3 = alloca i32, align 4
  store ptr %0, ptr %2, align 8, !tbaa !10
  call void @llvm.lifetime.start.p0(i64 4, ptr %3) #12
  %4 = load ptr, ptr %2, align 8, !tbaa !10
  %5 = getelementptr inbounds i32, ptr %4, i64 0
  %6 = load i32, ptr %5, align 4, !tbaa !20
  store i32 %6, ptr %3, align 4, !tbaa !20
  %7 = load ptr, ptr %2, align 8, !tbaa !10
  %8 = getelementptr inbounds i32, ptr %7, i64 2
  %9 = load i32, ptr %8, align 4, !tbaa !20
  %10 = load ptr, ptr %2, align 8, !tbaa !10
  %11 = getelementptr inbounds i32, ptr %10, i64 0
  store i32 %9, ptr %11, align 4, !tbaa !20
  %12 = load ptr, ptr %2, align 8, !tbaa !10
  %13 = getelementptr inbounds i32, ptr %12, i64 1
  %14 = load i32, ptr %13, align 4, !tbaa !20
  %15 = load ptr, ptr %2, align 8, !tbaa !10
  %16 = getelementptr inbounds i32, ptr %15, i64 2
  store i32 %14, ptr %16, align 4, !tbaa !20
  %17 = load i32, ptr %3, align 4, !tbaa !20
  %18 = load ptr, ptr %2, align 8, !tbaa !10
  %19 = getelementptr inbounds i32, ptr %18, i64 1
  store i32 %17, ptr %19, align 4, !tbaa !20
  call void @llvm.lifetime.end.p0(i64 4, ptr %3) #12
  ret void
}

; Function Attrs: mustprogress nounwind uwtable
define internal noundef i32 @_ZL12fft5d_limitsP12fft5d_plan_tPiS1_S1_(ptr noundef %0, ptr noundef %1, ptr noundef %2, ptr noundef %3) #4 {
  %5 = alloca ptr, align 8
  %6 = alloca ptr, align 8
  %7 = alloca ptr, align 8
  %8 = alloca ptr, align 8
  store ptr %0, ptr %5, align 8, !tbaa !38
  store ptr %1, ptr %6, align 8, !tbaa !10
  store ptr %2, ptr %7, align 8, !tbaa !10
  store ptr %3, ptr %8, align 8, !tbaa !10
  %9 = load ptr, ptr %7, align 8, !tbaa !10
  %10 = getelementptr inbounds i32, ptr %9, i64 2
  store i32 0, ptr %10, align 4, !tbaa !20
  %11 = load ptr, ptr %5, align 8, !tbaa !38
  %12 = getelementptr inbounds nuw %struct.fft5d_plan_t, ptr %11, i32 0, i32 13
  %13 = getelementptr inbounds [3 x i32], ptr %12, i64 0, i64 0
  %14 = load i32, ptr %13, align 8, !tbaa !20
  %15 = load ptr, ptr %7, align 8, !tbaa !10
  %16 = getelementptr inbounds i32, ptr %15, i64 1
  store i32 %14, ptr %16, align 4, !tbaa !20
  %17 = load ptr, ptr %5, align 8, !tbaa !38
  %18 = getelementptr inbounds nuw %struct.fft5d_plan_t, ptr %17, i32 0, i32 14
  %19 = getelementptr inbounds [3 x i32], ptr %18, i64 0, i64 0
  %20 = load i32, ptr %19, align 4, !tbaa !20
  %21 = load ptr, ptr %7, align 8, !tbaa !10
  %22 = getelementptr inbounds i32, ptr %21, i64 0
  store i32 %20, ptr %22, align 4, !tbaa !20
  %23 = load ptr, ptr %5, align 8, !tbaa !38
  %24 = getelementptr inbounds nuw %struct.fft5d_plan_t, ptr %23, i32 0, i32 20
  %25 = getelementptr inbounds [3 x i32], ptr %24, i64 0, i64 0
  %26 = load i32, ptr %25, align 4, !tbaa !20
  %27 = load ptr, ptr %6, align 8, !tbaa !10
  %28 = getelementptr inbounds i32, ptr %27, i64 2
  store i32 %26, ptr %28, align 4, !tbaa !20
  %29 = load ptr, ptr %5, align 8, !tbaa !38
  %30 = getelementptr inbounds nuw %struct.fft5d_plan_t, ptr %29, i32 0, i32 11
  %31 = getelementptr inbounds [3 x i32], ptr %30, i64 0, i64 0
  %32 = load i32, ptr %31, align 8, !tbaa !20
  %33 = load ptr, ptr %6, align 8, !tbaa !10
  %34 = getelementptr inbounds i32, ptr %33, i64 1
  store i32 %32, ptr %34, align 4, !tbaa !20
  %35 = load ptr, ptr %5, align 8, !tbaa !38
  %36 = getelementptr inbounds nuw %struct.fft5d_plan_t, ptr %35, i32 0, i32 12
  %37 = getelementptr inbounds [3 x i32], ptr %36, i64 0, i64 0
  %38 = load i32, ptr %37, align 4, !tbaa !20
  %39 = load ptr, ptr %6, align 8, !tbaa !10
  %40 = getelementptr inbounds i32, ptr %39, i64 0
  store i32 %38, ptr %40, align 4, !tbaa !20
  %41 = load ptr, ptr %5, align 8, !tbaa !38
  %42 = getelementptr inbounds nuw %struct.fft5d_plan_t, ptr %41, i32 0, i32 22
  %43 = load i32, ptr %42, align 8, !tbaa !39
  %44 = and i32 %43, 2
  %45 = icmp ne i32 %44, 0
  br i1 %45, label %60, label %46

46:                                               ; preds = %4
  %47 = load ptr, ptr %5, align 8, !tbaa !38
  %48 = getelementptr inbounds nuw %struct.fft5d_plan_t, ptr %47, i32 0, i32 22
  %49 = load i32, ptr %48, align 8, !tbaa !39
  %50 = and i32 %49, 4
  %51 = icmp ne i32 %50, 0
  br i1 %51, label %52, label %60

52:                                               ; preds = %46
  %53 = load ptr, ptr %5, align 8, !tbaa !38
  %54 = getelementptr inbounds nuw %struct.fft5d_plan_t, ptr %53, i32 0, i32 19
  %55 = getelementptr inbounds [3 x i32], ptr %54, i64 0, i64 0
  %56 = load i32, ptr %55, align 8, !tbaa !20
  %57 = mul nsw i32 %56, 2
  %58 = load ptr, ptr %8, align 8, !tbaa !10
  %59 = getelementptr inbounds i32, ptr %58, i64 2
  store i32 %57, ptr %59, align 4, !tbaa !20
  br label %67

60:                                               ; preds = %46, %4
  %61 = load ptr, ptr %5, align 8, !tbaa !38
  %62 = getelementptr inbounds nuw %struct.fft5d_plan_t, ptr %61, i32 0, i32 19
  %63 = getelementptr inbounds [3 x i32], ptr %62, i64 0, i64 0
  %64 = load i32, ptr %63, align 8, !tbaa !20
  %65 = load ptr, ptr %8, align 8, !tbaa !10
  %66 = getelementptr inbounds i32, ptr %65, i64 2
  store i32 %64, ptr %66, align 4, !tbaa !20
  br label %67

67:                                               ; preds = %60, %52
  %68 = load ptr, ptr %5, align 8, !tbaa !38
  %69 = getelementptr inbounds nuw %struct.fft5d_plan_t, ptr %68, i32 0, i32 11
  %70 = getelementptr inbounds [3 x i32], ptr %69, i64 0, i64 0
  %71 = load i32, ptr %70, align 8, !tbaa !20
  %72 = load ptr, ptr %8, align 8, !tbaa !10
  %73 = getelementptr inbounds i32, ptr %72, i64 1
  store i32 %71, ptr %73, align 4, !tbaa !20
  %74 = load ptr, ptr %5, align 8, !tbaa !38
  %75 = getelementptr inbounds nuw %struct.fft5d_plan_t, ptr %74, i32 0, i32 12
  %76 = getelementptr inbounds [3 x i32], ptr %75, i64 0, i64 0
  %77 = load i32, ptr %76, align 4, !tbaa !20
  %78 = load ptr, ptr %8, align 8, !tbaa !10
  %79 = getelementptr inbounds i32, ptr %78, i64 0
  store i32 %77, ptr %79, align 4, !tbaa !20
  ret i32 0
}

; Function Attrs: mustprogress uwtable
define noundef i32 @_Z33gmx_parallel_3dfft_complex_limitsP18gmx_parallel_3dfftPiS1_S1_S1_(ptr noundef %0, ptr noundef %1, ptr noundef %2, ptr noundef %3, ptr noundef %4) #0 {
  %6 = alloca ptr, align 8
  %7 = alloca ptr, align 8
  %8 = alloca ptr, align 8
  %9 = alloca ptr, align 8
  %10 = alloca ptr, align 8
  %11 = alloca i32, align 4
  store ptr %0, ptr %6, align 8, !tbaa !28
  store ptr %1, ptr %7, align 8, !tbaa !10
  store ptr %2, ptr %8, align 8, !tbaa !10
  store ptr %3, ptr %9, align 8, !tbaa !10
  store ptr %4, ptr %10, align 8, !tbaa !10
  call void @llvm.lifetime.start.p0(i64 4, ptr %11) #12
  %12 = load ptr, ptr %7, align 8, !tbaa !10
  %13 = getelementptr inbounds i32, ptr %12, i64 0
  store i32 0, ptr %13, align 4, !tbaa !20
  %14 = load ptr, ptr %7, align 8, !tbaa !10
  %15 = getelementptr inbounds i32, ptr %14, i64 1
  store i32 1, ptr %15, align 4, !tbaa !20
  %16 = load ptr, ptr %7, align 8, !tbaa !10
  %17 = getelementptr inbounds i32, ptr %16, i64 2
  store i32 2, ptr %17, align 4, !tbaa !20
  %18 = load ptr, ptr %6, align 8, !tbaa !28
  %19 = getelementptr inbounds nuw %struct.gmx_parallel_3dfft, ptr %18, i32 0, i32 1
  %20 = load ptr, ptr %19, align 8, !tbaa !33
  %21 = load ptr, ptr %8, align 8, !tbaa !10
  %22 = load ptr, ptr %9, align 8, !tbaa !10
  %23 = load ptr, ptr %10, align 8, !tbaa !10
  %24 = call noundef i32 @_ZL12fft5d_limitsP12fft5d_plan_tPiS1_S1_(ptr noundef %20, ptr noundef %21, ptr noundef %22, ptr noundef %23)
  store i32 %24, ptr %11, align 4, !tbaa !20
  %25 = load ptr, ptr %8, align 8, !tbaa !10
  call void @_ZL16reorder_ivec_yzxPi(ptr noundef %25)
  %26 = load ptr, ptr %9, align 8, !tbaa !10
  call void @_ZL16reorder_ivec_yzxPi(ptr noundef %26)
  %27 = load ptr, ptr %10, align 8, !tbaa !10
  call void @_ZL16reorder_ivec_yzxPi(ptr noundef %27)
  %28 = load i32, ptr %11, align 4, !tbaa !20
  call void @llvm.lifetime.end.p0(i64 4, ptr %11) #12
  ret i32 %28
}