; Function Attrs: mustprogress nofree norecurse nosync nounwind willreturn memory(read, argmem: readwrite, inaccessiblemem: none) uwtable
define noundef i32 @_Z33gmx_parallel_3dfft_complex_limitsP18gmx_parallel_3dfftPiS1_S1_S1_(ptr noundef readonly captures(none) %0, ptr noundef writeonly captures(none) initializes((0, 12)) %1, ptr noundef captures(none) initializes((0, 12)) %2, ptr noundef captures(none) initializes((0, 12)) %3, ptr noundef captures(none) initializes((0, 12)) %4) local_unnamed_addr #3 {
  store i32 0, ptr %1, align 4, !tbaa !4
  %6 = getelementptr inbounds nuw i8, ptr %1, i64 4
  store i32 1, ptr %6, align 4, !tbaa !4
  %7 = getelementptr inbounds nuw i8, ptr %1, i64 8
  store i32 2, ptr %7, align 4, !tbaa !4
  %8 = getelementptr inbounds nuw i8, ptr %0, i64 8
  %9 = load ptr, ptr %8, align 8, !tbaa !16
  %10 = getelementptr inbounds nuw i8, ptr %3, i64 8
  store i32 0, ptr %10, align 4, !tbaa !4
  %11 = getelementptr inbounds nuw i8, ptr %9, i64 152
  %12 = load i32, ptr %11, align 8, !tbaa !4
  %13 = getelementptr inbounds nuw i8, ptr %3, i64 4
  store i32 %12, ptr %13, align 4, !tbaa !4
  %14 = getelementptr inbounds nuw i8, ptr %9, i64 164
  %15 = load i32, ptr %14, align 4, !tbaa !4
  store i32 %15, ptr %3, align 4, !tbaa !4
  %16 = getelementptr inbounds nuw i8, ptr %9, i64 284
  %17 = load i32, ptr %16, align 4, !tbaa !4
  %18 = getelementptr inbounds nuw i8, ptr %2, i64 8
  store i32 %17, ptr %18, align 4, !tbaa !4
  %19 = getelementptr inbounds nuw i8, ptr %9, i64 128
  %20 = load i32, ptr %19, align 8, !tbaa !4
  %21 = getelementptr inbounds nuw i8, ptr %2, i64 4
  store i32 %20, ptr %21, align 4, !tbaa !4
  %22 = getelementptr inbounds nuw i8, ptr %9, i64 140
  %23 = load i32, ptr %22, align 4, !tbaa !4
  store i32 %23, ptr %2, align 4, !tbaa !4
  %24 = getelementptr inbounds nuw i8, ptr %9, i64 304
  %25 = load i32, ptr %24, align 8, !tbaa !17
  %26 = and i32 %25, 6
  %or.cond.not.i = icmp eq i32 %26, 4
  %27 = getelementptr inbounds nuw i8, ptr %9, i64 272
  %28 = load i32, ptr %27, align 8, !tbaa !4
  %29 = zext i1 %or.cond.not.i to i32
  %.sink.i = shl nsw i32 %28, %29
  %30 = getelementptr inbounds nuw i8, ptr %4, i64 8
  store i32 %.sink.i, ptr %30, align 4, !tbaa !4
  %31 = load i32, ptr %19, align 8, !tbaa !4
  %32 = getelementptr inbounds nuw i8, ptr %4, i64 4
  store i32 %31, ptr %32, align 4, !tbaa !4
  %33 = load i32, ptr %22, align 4, !tbaa !4
  store i32 %33, ptr %4, align 4, !tbaa !4
  %34 = load i32, ptr %2, align 4, !tbaa !4
  %35 = load i32, ptr %18, align 4, !tbaa !4
  store i32 %35, ptr %2, align 4, !tbaa !4
  %36 = load i32, ptr %21, align 4, !tbaa !4
  store i32 %36, ptr %18, align 4, !tbaa !4
  store i32 %34, ptr %21, align 4, !tbaa !4
  %37 = load i32, ptr %3, align 4, !tbaa !4
  %38 = load i32, ptr %10, align 4, !tbaa !4
  store i32 %38, ptr %3, align 4, !tbaa !4
  %39 = load i32, ptr %13, align 4, !tbaa !4
  store i32 %39, ptr %10, align 4, !tbaa !4
  store i32 %37, ptr %13, align 4, !tbaa !4
  %40 = load i32, ptr %4, align 4, !tbaa !4
  %41 = load i32, ptr %30, align 4, !tbaa !4
  store i32 %41, ptr %4, align 4, !tbaa !4
  %42 = load i32, ptr %32, align 4, !tbaa !4
  store i32 %42, ptr %30, align 4, !tbaa !4
  store i32 %40, ptr %32, align 4, !tbaa !4
  ret i32 0
}